target datalayout = "e-m:e-p270:32:32-p271:32:32-p272:64:64-i64:64-i128:128-f80:128-n8:16:32:64-S128"
target triple = "x86_64-pc-linux-gnu"

%"class.(anonymous namespace)::AdaptiveManifoldFilterN" = type { %"class.cv::ximgproc::AdaptiveManifoldFilter", i8, double, double, i32, i32, i8, %"class.cv::Size_", %"class.cv::Size_", i32, i32, %"class.std::vector", %"class.std::vector", %"class.std::vector", %"class.std::vector", %"class.cv::Mat", %"class.cv::Mat", %"class.cv::Mat", %"class.std::vector", %"class.cv::Mat_", i32, float, %"class.cv::RNG" }
%"class.cv::ximgproc::AdaptiveManifoldFilter" = type { %"class.cv::Algorithm" }
%"class.cv::Algorithm" = type { ptr }
%"class.cv::Size_" = type { i32, i32 }
%"class.cv::Mat" = type { i32, i32, i32, i32, ptr, ptr, ptr, ptr, ptr, ptr, %"struct.cv::MatSize", %"struct.cv::MatStep" }
%"struct.cv::MatSize" = type { ptr }
%"struct.cv::MatStep" = type { ptr, [2 x i64] }
%"class.std::vector" = type { %"struct.std::_Vector_base" }
%"struct.std::_Vector_base" = type { %"struct.std::_Vector_base<cv::Mat, std::allocator<cv::Mat>>::_Vector_impl" }
%"struct.std::_Vector_base<cv::Mat, std::allocator<cv::Mat>>::_Vector_impl" = type { %"struct.std::_Vector_base<cv::Mat, std::allocator<cv::Mat>>::_Vector_impl_data" }
%"struct.std::_Vector_base<cv::Mat, std::allocator<cv::Mat>>::_Vector_impl_data" = type { ptr, ptr, ptr }
%"class.cv::Mat_" = type { %"class.cv::Mat" }
%"class.cv::RNG" = type { i64 }
%"class.cv::_InputArray" = type { i32, ptr, %"class.cv::Size_" }
%"class.cv::_OutputArray" = type { %"class.cv::_InputArray" }

; Function Attrs: inlinehint mustprogress uwtable
define linkonce_odr hidden void @_ZN2cv11_InputArrayC2Ev(ptr noundef nonnull align 8 dereferenceable(24) %0) unnamed_addr #7 comdat align 2 {
  %2 = alloca ptr, align 8
  store ptr %0, ptr %2, align 8, !tbaa !48
  %3 = load ptr, ptr %2, align 8
  %4 = getelementptr inbounds nuw %"class.cv::_InputArray", ptr %3, i32 0, i32 2
  call void @_ZN2cv5Size_IiEC2Ev(ptr noundef nonnull align 4 dereferenceable(8) %4)
  call void @_ZN2cv11_InputArray4initEiPKv(ptr noundef nonnull align 8 dereferenceable(24) %3, i32 noundef 0, ptr noundef null)
  ret void
}

; Function Attrs: inlinehint mustprogress nounwind uwtable
define linkonce_odr hidden void @_ZN2cv11_InputArray4initEiPKv(ptr noundef nonnull align 8 dereferenceable(24) %0, i32 noundef %1, ptr noundef %2) #10 comdat align 2 {
  %4 = alloca ptr, align 8
  %5 = alloca i32, align 4
  %6 = alloca ptr, align 8
  store ptr %0, ptr %4, align 8, !tbaa !48
  store i32 %1, ptr %5, align 4, !tbaa !74
  store ptr %2, ptr %6, align 8, !tbaa !161
  %7 = load ptr, ptr %4, align 8
  %8 = load i32, ptr %5, align 4, !tbaa !74
  %9 = getelementptr inbounds nuw %"class.cv::_InputArray", ptr %7, i32 0, i32 0
  store i32 %8, ptr %9, align 8, !tbaa !162
  %10 = load ptr, ptr %6, align 8, !tbaa !161
  %11 = getelementptr inbounds nuw %"class.cv::_InputArray", ptr %7, i32 0, i32 1
  store ptr %10, ptr %11, align 8, !tbaa !153
  ret void
}

; Function Attrs: inlinehint mustprogress nounwind uwtable
define linkonce_odr hidden void @_ZN2cv5Size_IiEC2Ev(ptr noundef nonnull align 4 dereferenceable(8) %0) unnamed_addr #10 comdat align 2 {
  %2 = alloca ptr, align 8
  store ptr %0, ptr %2, align 8, !tbaa !54
  %3 = load ptr, ptr %2, align 8
  %4 = getelementptr inbounds nuw %"class.cv::Size_", ptr %3, i32 0, i32 0
  store i32 0, ptr %4, align 4, !tbaa !56
  %5 = getelementptr inbounds nuw %"class.cv::Size_", ptr %3, i32 0, i32 1
  store i32 0, ptr %5, align 4, !tbaa !57
  ret void
}

; Function Attrs: inlinehint mustprogress nounwind uwtable
define linkonce_odr hidden void @_ZN2cv11_InputArrayD2Ev(ptr noundef nonnull align 8 dereferenceable(24) %0) unnamed_addr #10 comdat align 2 {
  %2 = alloca ptr, align 8
  store ptr %0, ptr %2, align 8, !tbaa !48
  ret void
}

; Function Attrs: inlinehint mustprogress uwtable
define linkonce_odr hidden void @_ZN2cv12_OutputArrayC2ERNS_3MatE(ptr noundef nonnull align 8 dereferenceable(24) %0, ptr noundef nonnull align 8 dereferenceable(96) %1) unnamed_addr #7 comdat align 2 {
  %3 = alloca ptr, align 8
  %4 = alloca ptr, align 8
  store ptr %0, ptr %3, align 8, !tbaa !50
  store ptr %1, ptr %4, align 8, !tbaa !96
  %5 = load ptr, ptr %3, align 8
  call void @_ZN2cv11_InputArrayC2Ev(ptr noundef nonnull align 8 dereferenceable(24) %5)
  %6 = load ptr, ptr %4, align 8, !tbaa !96
  call void @_ZN2cv11_InputArray4initEiPKv(ptr noundef nonnull align 8 dereferenceable(24) %5, i32 noundef 33619968, ptr noundef %6)
  ret void
}

; Function Attrs: inlinehint mustprogress uwtable
define linkonce_odr hidden void @_ZN2cv11_InputArrayC2ERKNS_3MatE(ptr noundef nonnull align 8 dereferenceable(24) %0, ptr noundef nonnull align 8 dereferenceable(96) %1) unnamed_addr #7 comdat align 2 {
  %3 = alloca ptr, align 8
  %4 = alloca ptr, align 8
  store ptr %0, ptr %3, align 8, !tbaa !48
  store ptr %1, ptr %4, align 8, !tbaa !96
  %5 = load ptr, ptr %3, align 8
  %6 = getelementptr inbounds nuw %"class.cv::_InputArray", ptr %5, i32 0, i32 2
  call void @_ZN2cv5Size_IiEC2Ev(ptr noundef nonnull align 4 dereferenceable(8) %6)
  %7 = load ptr, ptr %4, align 8, !tbaa !96
  call void @_ZN2cv11_InputArray4initEiPKv(ptr noundef nonnull align 8 dereferenceable(24) %5, i32 noundef 16842752, ptr noundef %7)
  ret void
}

; Function Attrs: mustprogress nounwind uwtable
define linkonce_odr hidden noundef nonnull align 8 dereferenceable(96) ptr @_ZNSt6vectorIN2cv3MatESaIS1_EEixEm(ptr noundef nonnull align 8 dereferenceable(24) %0, i64 noundef %1) #8 comdat align 2 {
  %3 = alloca ptr, align 8
  %4 = alloca i64, align 8
  store ptr %0, ptr %3, align 8, !tbaa !58
  store i64 %1, ptr %4, align 8, !tbaa !80
  %5 = load ptr, ptr %3, align 8
  %6 = getelementptr inbounds nuw %"struct.std::_Vector_base", ptr %5, i32 0, i32 0
  %7 = getelementptr inbounds nuw %"struct.std::_Vector_base<cv::Mat, std::allocator<cv::Mat>>::_Vector_impl_data", ptr %6, i32 0, i32 0
  %8 = load ptr, ptr %7, align 8, !tbaa !66
  %9 = load i64, ptr %4, align 8, !tbaa !80
  %10 = getelementptr inbounds nuw %"class.cv::Mat", ptr %8, i64 %9
  ret ptr %10
}

; Function Attrs: inlinehint mustprogress nounwind uwtable
define linkonce_odr hidden noundef ptr @_ZN2cv3Mat3ptrIfEEPT_i(ptr noundef nonnull align 8 dereferenceable(96) %0, i32 noundef %1) #10 comdat align 2 {
  %3 = alloca ptr, align 8
  %4 = alloca i32, align 4
  store ptr %0, ptr %3, align 8, !tbaa !96
  store i32 %1, ptr %4, align 4, !tbaa !74
  %5 = load ptr, ptr %3, align 8
  %6 = getelementptr inbounds nuw %"class.cv::Mat", ptr %5, i32 0, i32 4
  %7 = load ptr, ptr %6, align 8, !tbaa !111
  %8 = getelementptr inbounds nuw %"class.cv::Mat", ptr %5, i32 0, i32 11
  %9 = getelementptr inbounds nuw %"struct.cv::MatStep", ptr %8, i32 0, i32 0
  %10 = load ptr, ptr %9, align 8, !tbaa !112
  %11 = getelementptr inbounds i64, ptr %10, i64 0
  %12 = load i64, ptr %11, align 8, !tbaa !80
  %13 = load i32, ptr %4, align 4, !tbaa !74
  %14 = sext i32 %13 to i64
  %15 = mul i64 %12, %14
  %16 = getelementptr inbounds nuw i8, ptr %7, i64 %15
  ret ptr %16
}

; Function Attrs: mustprogress uwtable
define internal void @_ZN12_GLOBAL__N_123AdaptiveManifoldFilterN11compute_w_kERSt6vectorIN2cv3MatESaIS3_EERS3_fi(ptr noundef nonnull align 8 dereferenceable(592) %0, ptr noundef nonnull align 8 dereferenceable(24) %1, ptr noundef nonnull align 8 dereferenceable(96) %2, float noundef %3, i32 noundef %4) #4 align 2 personality ptr @__gxx_personality_v0 {
  %6 = alloca ptr, align 8
  %7 = alloca ptr, align 8
  %8 = alloca ptr, align 8
  %9 = alloca float, align 4
  %10 = alloca i32, align 4
  %11 = alloca %"class.cv::Size_", align 4
  %12 = alloca float, align 4
  %13 = alloca i32, align 4
  %14 = alloca i32, align 4
  %15 = alloca ptr, align 8
  %16 = alloca i32, align 4
  %17 = alloca ptr, align 8
  %18 = alloca ptr, align 8
  %19 = alloca ptr, align 8
  %20 = alloca %"class.cv::_InputArray", align 8
  %21 = alloca %"class.cv::_OutputArray", align 8
  %22 = alloca ptr, align 8
  %23 = alloca i32, align 4
  store ptr %0, ptr %6, align 8, !tbaa !3
  store ptr %1, ptr %7, align 8, !tbaa !58
  store ptr %2, ptr %8, align 8, !tbaa !96
  store float %3, ptr %9, align 4, !tbaa !79
  store i32 %4, ptr %10, align 4, !tbaa !74
  %24 = load ptr, ptr %6, align 8
  %25 = load ptr, ptr %8, align 8, !tbaa !96
  %26 = getelementptr inbounds nuw %"class.(anonymous namespace)::AdaptiveManifoldFilterN", ptr %24, i32 0, i32 7
  call void @llvm.memcpy.p0.p0.i64(ptr align 4 %11, ptr align 4 %26, i64 8, i1 false), !tbaa.struct !82
  %27 = load i64, ptr %11, align 4
  call void @_ZN2cv3Mat6createENS_5Size_IiEEi(ptr noundef nonnull align 8 dereferenceable(96) %25, i64 %27, i32 noundef 5)
  call void @llvm.lifetime.start.p0(i64 4, ptr %12) #3
  %28 = load float, ptr %9, align 4, !tbaa !79
  %29 = load float, ptr %9, align 4, !tbaa !79
  %30 = fmul float %28, %29
  %31 = fdiv float -5.000000e-01, %30
  store float %31, ptr %12, align 4, !tbaa !79
  call void @llvm.lifetime.start.p0(i64 4, ptr %13) #3
  store i32 0, ptr %13, align 4, !tbaa !74
  br label %32

32:                                               ; preds = %115, %5
  %33 = load i32, ptr %13, align 4, !tbaa !74
  %34 = getelementptr inbounds nuw %"class.(anonymous namespace)::AdaptiveManifoldFilterN", ptr %24, i32 0, i32 7
  %35 = getelementptr inbounds nuw %"class.cv::Size_", ptr %34, i32 0, i32 1
  %36 = load i32, ptr %35, align 4, !tbaa !77
  %37 = icmp slt i32 %33, %36
  br i1 %37, label %39, label %38

38:                                               ; preds = %32
  store i32 2, ptr %14, align 4
  call void @llvm.lifetime.end.p0(i64 4, ptr %13) #3
  br label %118

39:                                               ; preds = %32
  call void @llvm.lifetime.start.p0(i64 8, ptr %15) #3
  %40 = load ptr, ptr %8, align 8, !tbaa !96
  %41 = load i32, ptr %13, align 4, !tbaa !74
  %42 = call noundef ptr @_ZN2cv3Mat3ptrIfEEPT_i(ptr noundef nonnull align 8 dereferenceable(96) %40, i32 noundef %41)
  store ptr %42, ptr %15, align 8, !tbaa !116
  call void @llvm.lifetime.start.p0(i64 4, ptr %16) #3
  store i32 0, ptr %16, align 4, !tbaa !74
  br label %43

43:                                               ; preds = %79, %39
  %44 = load i32, ptr %16, align 4, !tbaa !74
  %45 = getelementptr inbounds nuw %"class.(anonymous namespace)::AdaptiveManifoldFilterN", ptr %24, i32 0, i32 9
  %46 = load i32, ptr %45, align 4, !tbaa !84
  %47 = icmp slt i32 %44, %46
  br i1 %47, label %49, label %48

48:                                               ; preds = %43
  store i32 5, ptr %14, align 4
  call void @llvm.lifetime.end.p0(i64 4, ptr %16) #3
  br label %82

49:                                               ; preds = %43
  call void @llvm.lifetime.start.p0(i64 8, ptr %17) #3
  %50 = load ptr, ptr %7, align 8, !tbaa !58
  %51 = load i32, ptr %16, align 4, !tbaa !74
  %52 = sext i32 %51 to i64
  %53 = call noundef nonnull align 8 dereferenceable(96) ptr @_ZNSt6vectorIN2cv3MatESaIS1_EEixEm(ptr noundef nonnull align 8 dereferenceable(24) %50, i64 noundef %52) #3
  %54 = load i32, ptr %13, align 4, !tbaa !74
  %55 = call noundef ptr @_ZN2cv3Mat3ptrIfEEPT_i(ptr noundef nonnull align 8 dereferenceable(96) %53, i32 noundef %54)
  store ptr %55, ptr %17, align 8, !tbaa !116
  call void @llvm.lifetime.start.p0(i64 8, ptr %18) #3
  %56 = getelementptr inbounds nuw %"class.(anonymous namespace)::AdaptiveManifoldFilterN", ptr %24, i32 0, i32 11
  %57 = load i32, ptr %16, align 4, !tbaa !74
  %58 = sext i32 %57 to i64
  %59 = call noundef nonnull align 8 dereferenceable(96) ptr @_ZNSt6vectorIN2cv3MatESaIS1_EEixEm(ptr noundef nonnull align 8 dereferenceable(24) %56, i64 noundef %58) #3
  %60 = load i32, ptr %13, align 4, !tbaa !74
  %61 = call noundef ptr @_ZN2cv3Mat3ptrIfEEPT_i(ptr noundef nonnull align 8 dereferenceable(96) %59, i32 noundef %60)
  store ptr %61, ptr %18, align 8, !tbaa !116
  %62 = load i32, ptr %16, align 4, !tbaa !74
  %63 = icmp eq i32 %62, 0
  br i1 %63, label %64, label %71

64:                                               ; preds = %49
  %65 = load ptr, ptr %15, align 8, !tbaa !116
  %66 = load ptr, ptr %17, align 8, !tbaa !116
  %67 = load ptr, ptr %18, align 8, !tbaa !116
  %68 = getelementptr inbounds nuw %"class.(anonymous namespace)::AdaptiveManifoldFilterN", ptr %24, i32 0, i32 7
  %69 = getelementptr inbounds nuw %"class.cv::Size_", ptr %68, i32 0, i32 0
  %70 = load i32, ptr %69, align 4, !tbaa !78
  call void @_ZN2cv8ximgproc10intrinsics7sqr_difEPfS2_S2_i(ptr noundef %65, ptr noundef %66, ptr noundef %67, i32 noundef %70)
  br label %78

71:                                               ; preds = %49
  %72 = load ptr, ptr %15, align 8, !tbaa !116
  %73 = load ptr, ptr %17, align 8, !tbaa !116
  %74 = load ptr, ptr %18, align 8, !tbaa !116
  %75 = getelementptr inbounds nuw %"class.(anonymous namespace)::AdaptiveManifoldFilterN", ptr %24, i32 0, i32 7
  %76 = getelementptr inbounds nuw %"class.cv::Size_", ptr %75, i32 0, i32 0
  %77 = load i32, ptr %76, align 4, !tbaa !78
  call void @_ZN2cv8ximgproc10intrinsics11add_sqr_difEPfS2_S2_i(ptr noundef %72, ptr noundef %73, ptr noundef %74, i32 noundef %77)
  br label %78

78:                                               ; preds = %71, %64
  call void @llvm.lifetime.end.p0(i64 8, ptr %18) #3
  call void @llvm.lifetime.end.p0(i64 8, ptr %17) #3
  br label %79

79:                                               ; preds = %78
  %80 = load i32, ptr %16, align 4, !tbaa !74
  %81 = add nsw i32 %80, 1
  store i32 %81, ptr %16, align 4, !tbaa !74
  br label %43, !llvm.loop !211

82:                                               ; preds = %48
  %83 = getelementptr inbounds nuw %"class.(anonymous namespace)::AdaptiveManifoldFilterN", ptr %24, i32 0, i32 1
  %84 = load i8, ptr %83, align 8, !tbaa !38, !range !44, !noundef !45
  %85 = trunc i8 %84 to i1
  br i1 %85, label %86, label %108

86:                                               ; preds = %82
  call void @llvm.lifetime.start.p0(i64 8, ptr %19) #3
  %87 = getelementptr inbounds nuw %"class.(anonymous namespace)::AdaptiveManifoldFilterN", ptr %24, i32 0, i32 19
  %88 = load i32, ptr %13, align 4, !tbaa !74
  %89 = call noundef ptr @_ZN2cv3Mat3ptrIfEEPT_i(ptr noundef nonnull align 8 dereferenceable(96) %87, i32 noundef %88)
  store ptr %89, ptr %19, align 8, !tbaa !116
  %90 = load i32, ptr %10, align 4, !tbaa !74
  %91 = icmp ne i32 %90, 1
  br i1 %91, label %92, label %99

92:                                               ; preds = %86
  %93 = load ptr, ptr %19, align 8, !tbaa !116
  %94 = load ptr, ptr %19, align 8, !tbaa !116
  %95 = load ptr, ptr %15, align 8, !tbaa !116
  %96 = getelementptr inbounds nuw %"class.(anonymous namespace)::AdaptiveManifoldFilterN", ptr %24, i32 0, i32 7
  %97 = getelementptr inbounds nuw %"class.cv::Size_", ptr %96, i32 0, i32 0
  %98 = load i32, ptr %97, align 4, !tbaa !78
  call void @_ZN2cv8ximgproc10intrinsics4min_EPfS2_S2_i(ptr noundef %93, ptr noundef %94, ptr noundef %95, i32 noundef %98)
  br label %107

99:                                               ; preds = %86
  %100 = load ptr, ptr %19, align 8, !tbaa !116
  %101 = load ptr, ptr %15, align 8, !tbaa !116
  %102 = getelementptr inbounds nuw %"class.(anonymous namespace)::AdaptiveManifoldFilterN", ptr %24, i32 0, i32 7
  %103 = getelementptr inbounds nuw %"class.cv::Size_", ptr %102, i32 0, i32 0
  %104 = load i32, ptr %103, align 4, !tbaa !78
  %105 = sext i32 %104 to i64
  %106 = mul i64 %105, 4
  call void @llvm.memcpy.p0.p0.i64(ptr align 4 %100, ptr align 4 %101, i64 %106, i1 false)
  br label %107

107:                                              ; preds = %99, %92
  call void @llvm.lifetime.end.p0(i64 8, ptr %19) #3
  br label %108

108:                                              ; preds = %107, %82
  %109 = load ptr, ptr %15, align 8, !tbaa !116
  %110 = load ptr, ptr %15, align 8, !tbaa !116
  %111 = load float, ptr %12, align 4, !tbaa !79
  %112 = getelementptr inbounds nuw %"class.(anonymous namespace)::AdaptiveManifoldFilterN", ptr %24, i32 0, i32 7
  %113 = getelementptr inbounds nuw %"class.cv::Size_", ptr %112, i32 0, i32 0
  %114 = load i32, ptr %113, align 4, !tbaa !78
  call void @_ZN2cv8ximgproc10intrinsics3mulEPfS2_fi(ptr noundef %109, ptr noundef %110, float noundef %111, i32 noundef %114)
  call void @llvm.lifetime.end.p0(i64 8, ptr %15) #3
  br label %115

115:                                              ; preds = %108
  %116 = load i32, ptr %13, align 4, !tbaa !74
  %117 = add nsw i32 %116, 1
  store i32 %117, ptr %13, align 4, !tbaa !74
  br label %32, !llvm.loop !212

118:                                              ; preds = %38
  call void @llvm.lifetime.start.p0(i64 24, ptr %20) #3
  %119 = load ptr, ptr %8, align 8, !tbaa !96
  call void @_ZN2cv11_InputArrayC2ERKNS_3MatE(ptr noundef nonnull align 8 dereferenceable(24) %20, ptr noundef nonnull align 8 dereferenceable(96) %119)
  call void @llvm.lifetime.start.p0(i64 24, ptr %21) #3
  %120 = load ptr, ptr %8, align 8, !tbaa !96
  invoke void @_ZN2cv12_OutputArrayC2ERNS_3MatE(ptr noundef nonnull align 8 dereferenceable(24) %21, ptr noundef nonnull align 8 dereferenceable(96) %120)
          to label %121 unwind label %123

121:                                              ; preds = %118
  invoke void @_ZN2cv3expERKNS_11_InputArrayERKNS_12_OutputArrayE(ptr noundef nonnull align 8 dereferenceable(24) %20, ptr noundef nonnull align 8 dereferenceable(24) %21)
          to label %122 unwind label %127

122:                                              ; preds = %121
  call void @_ZN2cv11_InputArrayD2Ev(ptr noundef nonnull align 8 dereferenceable(24) %21) #3
  call void @llvm.lifetime.end.p0(i64 24, ptr %21) #3
  call void @_ZN2cv11_InputArrayD2Ev(ptr noundef nonnull align 8 dereferenceable(24) %20) #3
  call void @llvm.lifetime.end.p0(i64 24, ptr %20) #3
  call void @llvm.lifetime.end.p0(i64 4, ptr %12) #3
  ret void

123:                                              ; preds = %118
  %124 = landingpad { ptr, i32 }
          cleanup
  %125 = extractvalue { ptr, i32 } %124, 0
  store ptr %125, ptr %22, align 8
  %126 = extractvalue { ptr, i32 } %124, 1
  store i32 %126, ptr %23, align 4
  br label %131

127:                                              ; preds = %121
  %128 = landingpad { ptr, i32 }
          cleanup
  %129 = extractvalue { ptr, i32 } %128, 0
  store ptr %129, ptr %22, align 8
  %130 = extractvalue { ptr, i32 } %128, 1
  store i32 %130, ptr %23, align 4
  call void @_ZN2cv11_InputArrayD2Ev(ptr noundef nonnull align 8 dereferenceable(24) %21) #3
  br label %131

131:                                              ; preds = %127, %123
  call void @llvm.lifetime.end.p0(i64 24, ptr %21) #3
  call void @_ZN2cv11_InputArrayD2Ev(ptr noundef nonnull align 8 dereferenceable(24) %20) #3
  call void @llvm.lifetime.end.p0(i64 24, ptr %20) #3
  call void @llvm.lifetime.end.p0(i64 4, ptr %12) #3
  br label %132

132:                                              ; preds = %131
  %133 = load ptr, ptr %22, align 8
  %134 = load i32, ptr %23, align 4
  %135 = insertvalue { ptr, i32 } poison, ptr %133, 0
  %136 = insertvalue { ptr, i32 } %135, i32 %134, 1
  resume { ptr, i32 } %136
}