; Function Attrs: mustprogress uwtable
define internal fastcc void @_ZN12_GLOBAL__N_123AdaptiveManifoldFilterN11compute_w_kERSt6vectorIN2cv3MatESaIS3_EERS3_fi(ptr noundef nonnull readonly align 8 captures(none) dereferenceable(592) %0, ptr noundef nonnull readonly align 8 captures(none) dereferenceable(24) %1, ptr noundef nonnull align 8 dereferenceable(96) %2, float noundef %3, i32 noundef %4) unnamed_addr #3 align 2 personality ptr @__gxx_personality_v0 {
  %6 = alloca %"class.cv::_InputArray", align 8
  %7 = alloca %"class.cv::_OutputArray", align 8
  %8 = getelementptr inbounds nuw i8, ptr %0, i64 44
  %.sroa.0.0.copyload = load i64, ptr %8, align 4
  tail call void @_ZN2cv3Mat6createENS_5Size_IiEEi(ptr noundef nonnull align 8 dereferenceable(96) %2, i64 %.sroa.0.0.copyload, i32 noundef 5)
  %9 = fmul float %3, %3
  %10 = fdiv float -5.000000e-01, %9
  %11 = getelementptr inbounds nuw i8, ptr %0, i64 48
  %12 = load i32, ptr %11, align 8, !tbaa !64
  %13 = icmp sgt i32 %12, 0
  br i1 %13, label %.lr.ph42, label %._crit_edge43

.lr.ph42:                                         ; preds = %5
  %14 = getelementptr inbounds nuw i8, ptr %2, i64 16
  %15 = getelementptr inbounds nuw i8, ptr %2, i64 72
  %16 = getelementptr inbounds nuw i8, ptr %0, i64 60
  %17 = getelementptr inbounds nuw i8, ptr %0, i64 72
  %18 = getelementptr inbounds nuw i8, ptr %0, i64 8
  %19 = getelementptr inbounds nuw i8, ptr %0, i64 496
  %20 = getelementptr inbounds nuw i8, ptr %0, i64 552
  %.not = icmp eq i32 %4, 1
  br label %21

21:                                               ; preds = %.lr.ph42, %68
  %indvars.iv45 = phi i64 [ 0, %.lr.ph42 ], [ %indvars.iv.next46, %68 ]
  %22 = load ptr, ptr %14, align 8, !tbaa !93
  %23 = load ptr, ptr %15, align 8, !tbaa !94
  %24 = load i64, ptr %23, align 8, !tbaa !95
  %25 = mul i64 %24, %indvars.iv45
  %26 = getelementptr inbounds nuw i8, ptr %22, i64 %25
  %27 = load i32, ptr %16, align 4, !tbaa !70
  %28 = icmp sgt i32 %27, 0
  br i1 %28, label %.lr.ph, label %._crit_edge

._crit_edge:                                      ; preds = %53, %21
  %29 = load i8, ptr %18, align 8, !tbaa !38, !range !89, !noundef !90
  %30 = trunc nuw i8 %29 to i1
  br i1 %30, label %57, label %68

.lr.ph:                                           ; preds = %21, %53
  %indvars.iv = phi i64 [ %indvars.iv.next, %53 ], [ 0, %21 ]
  %31 = load ptr, ptr %1, align 8, !tbaa !55
  %32 = getelementptr inbounds nuw %"class.cv::Mat", ptr %31, i64 %indvars.iv
  %33 = getelementptr inbounds nuw i8, ptr %32, i64 16
  %34 = load ptr, ptr %33, align 8, !tbaa !93
  %35 = getelementptr inbounds nuw i8, ptr %32, i64 72
  %36 = load ptr, ptr %35, align 8, !tbaa !94
  %37 = load i64, ptr %36, align 8, !tbaa !95
  %38 = mul i64 %37, %indvars.iv45
  %39 = getelementptr inbounds nuw i8, ptr %34, i64 %38
  %40 = load ptr, ptr %17, align 8, !tbaa !55
  %41 = getelementptr inbounds nuw %"class.cv::Mat", ptr %40, i64 %indvars.iv
  %42 = getelementptr inbounds nuw i8, ptr %41, i64 16
  %43 = load ptr, ptr %42, align 8, !tbaa !93
  %44 = getelementptr inbounds nuw i8, ptr %41, i64 72
  %45 = load ptr, ptr %44, align 8, !tbaa !94
  %46 = load i64, ptr %45, align 8, !tbaa !95
  %47 = mul i64 %46, %indvars.iv45
  %48 = getelementptr inbounds nuw i8, ptr %43, i64 %47
  %49 = icmp eq i64 %indvars.iv, 0
  %50 = load i32, ptr %8, align 4, !tbaa !63
  br i1 %49, label %51, label %52

51:                                               ; preds = %.lr.ph
  tail call void @_ZN2cv8ximgproc10intrinsics7sqr_difEPfS2_S2_i(ptr noundef %26, ptr noundef %39, ptr noundef %48, i32 noundef %50)
  br label %53

52:                                               ; preds = %.lr.ph
  tail call void @_ZN2cv8ximgproc10intrinsics11add_sqr_difEPfS2_S2_i(ptr noundef %26, ptr noundef %39, ptr noundef %48, i32 noundef %50)
  br label %53

53:                                               ; preds = %52, %51
  %indvars.iv.next = add nuw nsw i64 %indvars.iv, 1
  %54 = load i32, ptr %16, align 4, !tbaa !70
  %55 = sext i32 %54 to i64
  %56 = icmp slt i64 %indvars.iv.next, %55
  br i1 %56, label %.lr.ph, label %._crit_edge, !llvm.loop !133

57:                                               ; preds = %._crit_edge
  %58 = load ptr, ptr %19, align 8, !tbaa !93
  %59 = load ptr, ptr %20, align 8, !tbaa !94
  %60 = load i64, ptr %59, align 8, !tbaa !95
  %61 = mul i64 %60, %indvars.iv45
  %62 = getelementptr inbounds nuw i8, ptr %58, i64 %61
  %63 = load i32, ptr %8, align 4, !tbaa !63
  br i1 %.not, label %65, label %64

64:                                               ; preds = %57
  tail call void @_ZN2cv8ximgproc10intrinsics4min_EPfS2_S2_i(ptr noundef %62, ptr noundef %62, ptr noundef %26, i32 noundef %63)
  br label %68

65:                                               ; preds = %57
  %66 = sext i32 %63 to i64
  %67 = shl nsw i64 %66, 2
  tail call void @llvm.memcpy.p0.p0.i64(ptr align 4 %62, ptr align 4 %26, i64 %67, i1 false)
  br label %68

68:                                               ; preds = %64, %65, %._crit_edge
  %69 = load i32, ptr %8, align 4, !tbaa !63
  tail call void @_ZN2cv8ximgproc10intrinsics3mulEPfS2_fi(ptr noundef %26, ptr noundef %26, float noundef %10, i32 noundef %69)
  %indvars.iv.next46 = add nuw nsw i64 %indvars.iv45, 1
  %70 = load i32, ptr %11, align 8, !tbaa !64
  %71 = sext i32 %70 to i64
  %72 = icmp slt i64 %indvars.iv.next46, %71
  br i1 %72, label %21, label %._crit_edge43, !llvm.loop !134

._crit_edge43:                                    ; preds = %68, %5
  call void @llvm.lifetime.start.p0(i64 24, ptr nonnull %6) #27
  %73 = getelementptr inbounds nuw i8, ptr %6, i64 16
  store i32 0, ptr %73, align 8, !tbaa !72
  %74 = getelementptr inbounds nuw i8, ptr %6, i64 20
  store i32 0, ptr %74, align 4, !tbaa !73
  store i32 16842752, ptr %6, align 8, !tbaa !66
  %75 = getelementptr inbounds nuw i8, ptr %6, i64 8
  store ptr %2, ptr %75, align 8, !tbaa !68
  call void @llvm.lifetime.start.p0(i64 24, ptr nonnull %7) #27
  %76 = getelementptr inbounds nuw i8, ptr %7, i64 8
  %77 = getelementptr inbounds nuw i8, ptr %7, i64 16
  store i64 0, ptr %77, align 8
  store i32 33619968, ptr %7, align 8, !tbaa !66
  store ptr %2, ptr %76, align 8, !tbaa !68
  call void @_ZN2cv3expERKNS_11_InputArrayERKNS_12_OutputArrayE(ptr noundef nonnull align 8 dereferenceable(24) %6, ptr noundef nonnull align 8 dereferenceable(24) %7)
  call void @llvm.lifetime.end.p0(i64 24, ptr nonnull %7) #27
  call void @llvm.lifetime.end.p0(i64 24, ptr nonnull %6) #27
  ret void
}